; Function Attrs: null_pointer_is_valid sspstrong uwtable
define internal i32 @dissect_oxid_resolve_oxid2_resp(ptr noundef %0, i32 noundef %1, ptr noundef %2, ptr noundef %3, ptr noundef %4, ptr noundef %5) #0 {
  %7 = alloca i32, align 4
  %8 = alloca i32, align 4
  %9 = alloca %struct._e_guid_t, align 4
  %10 = alloca i32, align 4
  %11 = alloca i16, align 2
  %12 = alloca i16, align 2
  %13 = alloca i32, align 4
  call void @llvm.lifetime.start.p0(i64 4, ptr nonnull %7) #3
  call void @llvm.lifetime.start.p0(i64 4, ptr nonnull %8) #3
  call void @llvm.lifetime.start.p0(i64 16, ptr nonnull %9) #3
  call void @llvm.lifetime.start.p0(i64 4, ptr nonnull %10) #3
  call void @llvm.lifetime.start.p0(i64 2, ptr nonnull %11) #3
  call void @llvm.lifetime.start.p0(i64 2, ptr nonnull %12) #3
  call void @llvm.lifetime.start.p0(i64 4, ptr nonnull %13) #3
  %14 = call i32 @dissect_dcom_dcerpc_pointer(ptr noundef %0, i32 noundef %1, ptr noundef %2, ptr noundef %3, ptr noundef %4, ptr noundef %5, ptr noundef nonnull %7)
  %15 = load i32, ptr %7, align 4
  %.not = icmp eq i32 %15, 0
  br i1 %.not, label %25, label %16

16:                                               ; preds = %6
  %17 = call i32 @dissect_dcom_dcerpc_array_size(ptr noundef %0, i32 noundef %14, ptr noundef %2, ptr noundef %3, ptr noundef %4, ptr noundef %5, ptr noundef nonnull %8)
  %18 = load i32, ptr @hf_oxid_bindings, align 4
  %19 = call i32 @dissect_dcom_DUALSTRINGARRAY(ptr noundef %0, i32 noundef %17, ptr noundef %2, ptr noundef %3, ptr noundef %4, ptr noundef %5, i32 noundef %18, ptr noundef null)
  %20 = load i32, ptr @hf_oxid_ipid, align 4
  %21 = call i32 @dissect_dcom_UUID(ptr noundef %0, i32 noundef %19, ptr noundef %2, ptr noundef %3, ptr noundef %4, ptr noundef %5, i32 noundef %20, ptr noundef nonnull %9)
  %22 = load i32, ptr @hf_oxid_authn_hint, align 4
  %23 = call i32 @dissect_ndr_uint32(ptr noundef %0, i32 noundef %21, ptr noundef %2, ptr noundef %3, ptr noundef %4, ptr noundef %5, i32 noundef %22, ptr noundef nonnull %10)
  %24 = call i32 @dissect_dcom_COMVERSION(ptr noundef %0, i32 noundef %23, ptr noundef %2, ptr noundef %3, ptr noundef %4, ptr noundef %5, ptr noundef nonnull %11, ptr noundef nonnull %12)
  br label %25

25:                                               ; preds = %16, %6
  %.0 = phi i32 [ %24, %16 ], [ %14, %6 ]
  %26 = call i32 @dissect_dcom_HRESULT(ptr noundef %0, i32 noundef %.0, ptr noundef %2, ptr noundef %3, ptr noundef %4, ptr noundef %5, ptr noundef nonnull %13)
  %27 = getelementptr inbounds nuw i8, ptr %2, i64 8
  %28 = load ptr, ptr %27, align 8
  %29 = load i32, ptr %13, align 4
  %30 = call ptr @val_to_str(i32 noundef %29, ptr noundef nonnull @dcom_hresult_vals, ptr noundef nonnull @.str.43)
  call void (ptr, i32, ptr, ...) @col_append_fstr(ptr noundef %28, i32 noundef 25, ptr noundef nonnull @.str.42, ptr noundef %30)
  call void @llvm.lifetime.end.p0(i64 4, ptr nonnull %13) #3
  call void @llvm.lifetime.end.p0(i64 2, ptr nonnull %12) #3
  call void @llvm.lifetime.end.p0(i64 2, ptr nonnull %11) #3
  call void @llvm.lifetime.end.p0(i64 4, ptr nonnull %10) #3
  call void @llvm.lifetime.end.p0(i64 16, ptr nonnull %9) #3
  call void @llvm.lifetime.end.p0(i64 4, ptr nonnull %8) #3
  call void @llvm.lifetime.end.p0(i64 4, ptr nonnull %7) #3
  ret i32 %26
}